; Function Attrs: mustprogress uwtable
define void @_ZN5arrow9CPUDevice8InstanceEv(ptr noalias nocapture writeonly sret(%"class.std::shared_ptr") align 8 %agg.result) local_unnamed_addr #4 align 2 personality ptr @__gxx_personality_v0 {
entry:
  %0 = load atomic i8, ptr @_ZGVZN5arrow9CPUDevice8InstanceEvE8instance acquire, align 8
  %guard.uninitialized = icmp eq i8 %0, 0
  br i1 %guard.uninitialized, label %init.check, label %init.end, !prof !19

init.check:                                       ; preds = %entry
  %1 = tail call i32 @__cxa_guard_acquire(ptr nonnull @_ZGVZN5arrow9CPUDevice8InstanceEvE8instance) #18
  %tobool.not = icmp eq i32 %1, 0
  br i1 %tobool.not, label %init.end, label %init

init:                                             ; preds = %init.check
  %call = invoke noalias noundef nonnull dereferenceable(32) ptr @_Znwm(i64 noundef 32) #21
          to label %invoke.cont2 unwind label %lpad

invoke.cont2:                                     ; preds = %init
  %2 = getelementptr inbounds i8, ptr %call, i64 8
  tail call void @llvm.memset.p0.i64(ptr noundef nonnull align 8 dereferenceable(16) %2, i8 0, i64 16, i1 false)
  %is_cpu_.i.i = getelementptr inbounds i8, ptr %call, i64 24
  store i8 1, ptr %is_cpu_.i.i, align 8
  store ptr getelementptr inbounds ({ [13 x ptr] }, ptr @_ZTVN5arrow9CPUDeviceE, i64 0, i32 0, i64 2), ptr %call, align 8
  invoke void @_ZNSt12__shared_ptrIN5arrow6DeviceELN9__gnu_cxx12_Lock_policyE2EEC2INS0_9CPUDeviceEvEEPT_(ptr noundef nonnull align 8 dereferenceable(16) @_ZZN5arrow9CPUDevice8InstanceEvE8instance, ptr noundef nonnull %call)
          to label %invoke.cont3 unwind label %lpad

invoke.cont3:                                     ; preds = %invoke.cont2
  %3 = tail call i32 @__cxa_atexit(ptr nonnull @_ZNSt10shared_ptrIN5arrow6DeviceEED2Ev, ptr nonnull @_ZZN5arrow9CPUDevice8InstanceEvE8instance, ptr nonnull @__dso_handle) #18
  tail call void @__cxa_guard_release(ptr nonnull @_ZGVZN5arrow9CPUDevice8InstanceEvE8instance) #18
  br label %init.end

init.end:                                         ; preds = %invoke.cont3, %init.check, %entry
  %4 = load <2 x ptr>, ptr @_ZZN5arrow9CPUDevice8InstanceEvE8instance, align 16
  store <2 x ptr> %4, ptr %agg.result, align 8
  %5 = extractelement <2 x ptr> %4, i64 1
  %cmp.not.i.i.i = icmp eq ptr %5, null
  br i1 %cmp.not.i.i.i, label %_ZNSt10shared_ptrIN5arrow6DeviceEEC2ERKS2_.exit, label %if.then.i.i.i

if.then.i.i.i:                                    ; preds = %init.end
  %_M_use_count.i.i.i.i = getelementptr inbounds i8, ptr %5, i64 8
  %6 = load i8, ptr @__libc_single_threaded, align 1
  %tobool.i.i.not.i.i.i.i = icmp eq i8 %6, 0
  br i1 %tobool.i.i.not.i.i.i.i, label %if.else.i.i.i.i.i, label %if.then.i.i.i.i.i

if.then.i.i.i.i.i:                                ; preds = %if.then.i.i.i
  %7 = load i32, ptr %_M_use_count.i.i.i.i, align 4
  %add.i.i.i.i.i = add nsw i32 %7, 1
  store i32 %add.i.i.i.i.i, ptr %_M_use_count.i.i.i.i, align 4
  br label %_ZNSt10shared_ptrIN5arrow6DeviceEEC2ERKS2_.exit

if.else.i.i.i.i.i:                                ; preds = %if.then.i.i.i
  %8 = atomicrmw volatile add ptr %_M_use_count.i.i.i.i, i32 1 acq_rel, align 4
  br label %_ZNSt10shared_ptrIN5arrow6DeviceEEC2ERKS2_.exit

_ZNSt10shared_ptrIN5arrow6DeviceEEC2ERKS2_.exit:  ; preds = %init.end, %if.then.i.i.i.i.i, %if.else.i.i.i.i.i
  ret void

lpad:                                             ; preds = %invoke.cont2, %init
  %9 = landingpad { ptr, i32 }
          cleanup
  tail call void @__cxa_guard_abort(ptr nonnull @_ZGVZN5arrow9CPUDevice8InstanceEvE8instance) #18
  resume { ptr, i32 } %9
}